; Function Attrs: nounwind uwtable
define dso_local i64 @hashbyteaextended(ptr noundef readonly captures(none) %0) local_unnamed_addr #0 {
  %2 = getelementptr inbounds nuw i8, ptr %0, i64 32
  %3 = load i64, ptr %2, align 8
  %4 = inttoptr i64 %3 to ptr
  %5 = tail call ptr @pg_detoast_datum_packed(ptr noundef %4) #6
  %6 = load i8, ptr %5, align 1
  %7 = zext i8 %6 to i32
  %8 = and i32 %7, 1
  %.not.i = icmp eq i32 %8, 0
  %9 = getelementptr inbounds nuw i8, ptr %5, i64 1
  %10 = getelementptr inbounds nuw i8, ptr %5, i64 4
  %11 = select i1 %.not.i, ptr %10, ptr %9
  %12 = icmp eq i8 %6, 1
  br i1 %12, label %13, label %21

13:                                               ; preds = %1
  %14 = load i8, ptr %9, align 1
  %15 = icmp eq i8 %14, 1
  %16 = and i8 %14, -2
  %17 = icmp eq i8 %16, 2
  %or.cond.i = or i1 %15, %17
  %18 = icmp eq i8 %14, 18
  %19 = select i1 %18, i32 16, i32 0
  %20 = select i1 %or.cond.i, i32 8, i32 %19
  br label %29

21:                                               ; preds = %1
  br i1 %.not.i, label %25, label %22

22:                                               ; preds = %21
  %23 = lshr i32 %7, 1
  %24 = add nsw i32 %23, -1
  br label %29

25:                                               ; preds = %21
  %26 = load i32, ptr %5, align 4
  %27 = lshr i32 %26, 2
  %28 = add nsw i32 %27, -4
  br label %29

29:                                               ; preds = %25, %22, %13
  %30 = phi i32 [ %20, %13 ], [ %24, %22 ], [ %28, %25 ]
  %31 = getelementptr inbounds nuw i8, ptr %0, i64 48
  %32 = load i64, ptr %31, align 8
  %33 = tail call i64 @hash_bytes_extended(ptr noundef nonnull %11, i32 noundef %30, i64 noundef %32) #6
  %34 = load i64, ptr %2, align 8
  %35 = inttoptr i64 %34 to ptr
  %.not17.i = icmp eq ptr %5, %35
  br i1 %.not17.i, label %hashvarlenaextended.exit, label %36

36:                                               ; preds = %29
  tail call void @pfree(ptr noundef nonnull %5) #6
  br label %hashvarlenaextended.exit

hashvarlenaextended.exit:                         ; preds = %29, %36
  ret i64 %33
}